target datalayout = "e-m:e-p270:32:32-p271:32:32-p272:64:64-i64:64-i128:128-f80:128-n8:16:32:64-S128"
target triple = "x86_64-pc-linux-gnu"

%struct.ZDICT_cover_params_t = type { i32, i32, i32, i32, double, i32, i32, %struct.ZDICT_params_t }
%struct.ZDICT_params_t = type { i32, i32, i32 }
%struct.COVER_dictSelection = type { ptr, i64, i64 }

; Function Attrs: nounwind uwtable
define internal void @setDictSelection(ptr dead_on_unwind noalias writable sret(%struct.COVER_dictSelection) align 8 %0, ptr noundef %1, i64 noundef %2, i64 noundef %3) #0 {
  %5 = alloca ptr, align 8
  %6 = alloca i64, align 8
  %7 = alloca i64, align 8
  store ptr %1, ptr %5, align 8, !tbaa !22
  store i64 %2, ptr %6, align 8, !tbaa !10
  store i64 %3, ptr %7, align 8, !tbaa !10
  %8 = load ptr, ptr %5, align 8, !tbaa !22
  %9 = getelementptr inbounds nuw %struct.COVER_dictSelection, ptr %0, i32 0, i32 0
  store ptr %8, ptr %9, align 8, !tbaa !73
  %10 = load i64, ptr %6, align 8, !tbaa !10
  %11 = getelementptr inbounds nuw %struct.COVER_dictSelection, ptr %0, i32 0, i32 1
  store i64 %10, ptr %11, align 8, !tbaa !76
  %12 = load i64, ptr %7, align 8, !tbaa !10
  %13 = getelementptr inbounds nuw %struct.COVER_dictSelection, ptr %0, i32 0, i32 2
  store i64 %12, ptr %13, align 8, !tbaa !75
  ret void
}

; Function Attrs: nounwind uwtable
define internal i32 @ERR_isError(i64 noundef %0) #0 {
  %2 = alloca i64, align 8
  store i64 %0, ptr %2, align 8, !tbaa !10
  %3 = load i64, ptr %2, align 8, !tbaa !10
  %4 = icmp ugt i64 %3, -120
  %5 = zext i1 %4 to i32
  ret i32 %5
}

; Function Attrs: nounwind uwtable
define void @COVER_dictSelectionError(ptr dead_on_unwind noalias writable sret(%struct.COVER_dictSelection) align 8 %0, i64 noundef %1) #0 {
  %3 = alloca i64, align 8
  store i64 %1, ptr %3, align 8, !tbaa !10
  %4 = load i64, ptr %3, align 8, !tbaa !10
  call void @setDictSelection(ptr dead_on_unwind writable sret(%struct.COVER_dictSelection) align 8 %0, ptr noundef null, i64 noundef 0, i64 noundef %4)
  ret void
}

; Function Attrs: nounwind uwtable
define void @COVER_selectDict(ptr dead_on_unwind noalias writable sret(%struct.COVER_dictSelection) align 8 %0, ptr noundef %1, i64 noundef %2, i64 noundef %3, ptr noundef %4, ptr noundef %5, i32 noundef %6, i64 noundef %7, i64 noundef %8, ptr noundef byval(%struct.ZDICT_cover_params_t) align 8 %9, ptr noundef %10, i64 noundef %11) #0 {
  %13 = alloca ptr, align 8
  %14 = alloca i64, align 8
  %15 = alloca i64, align 8
  %16 = alloca ptr, align 8
  %17 = alloca ptr, align 8
  %18 = alloca i32, align 4
  %19 = alloca i64, align 8
  %20 = alloca i64, align 8
  %21 = alloca ptr, align 8
  %22 = alloca i64, align 8
  %23 = alloca i64, align 8
  %24 = alloca i64, align 8
  %25 = alloca ptr, align 8
  %26 = alloca ptr, align 8
  %27 = alloca ptr, align 8
  %28 = alloca double, align 8
  %29 = alloca i32, align 4
  store ptr %1, ptr %13, align 8, !tbaa !22
  store i64 %2, ptr %14, align 8, !tbaa !10
  store i64 %3, ptr %15, align 8, !tbaa !10
  store ptr %4, ptr %16, align 8, !tbaa !22
  store ptr %5, ptr %17, align 8, !tbaa !3
  store i32 %6, ptr %18, align 4, !tbaa !8
  store i64 %7, ptr %19, align 8, !tbaa !10
  store i64 %8, ptr %20, align 8, !tbaa !10
  store ptr %10, ptr %21, align 8, !tbaa !3
  store i64 %11, ptr %22, align 8, !tbaa !10
  call void @llvm.lifetime.start.p0(i64 8, ptr %23) #10
  store i64 0, ptr %23, align 8, !tbaa !10
  call void @llvm.lifetime.start.p0(i64 8, ptr %24) #10
  store i64 0, ptr %24, align 8, !tbaa !10
  call void @llvm.lifetime.start.p0(i64 8, ptr %25) #10
  %30 = load ptr, ptr %13, align 8, !tbaa !22
  %31 = load i64, ptr %15, align 8, !tbaa !10
  %32 = getelementptr inbounds nuw i8, ptr %30, i64 %31
  store ptr %32, ptr %25, align 8, !tbaa !22
  call void @llvm.lifetime.start.p0(i64 8, ptr %26) #10
  %33 = load i64, ptr %14, align 8, !tbaa !10
  %34 = call noalias ptr @malloc(i64 noundef %33) #11
  store ptr %34, ptr %26, align 8, !tbaa !22
  call void @llvm.lifetime.start.p0(i64 8, ptr %27) #10
  %35 = load i64, ptr %14, align 8, !tbaa !10
  %36 = call noalias ptr @malloc(i64 noundef %35) #11
  store ptr %36, ptr %27, align 8, !tbaa !22
  call void @llvm.lifetime.start.p0(i64 8, ptr %28) #10
  %37 = getelementptr inbounds nuw %struct.ZDICT_cover_params_t, ptr %9, i32 0, i32 6
  %38 = load i32, ptr %37, align 4, !tbaa !78
  %39 = uitofp i32 %38 to double
  %40 = fdiv double %39, 1.000000e+02
  %41 = fadd double %40, 1.000000e+00
  store double %41, ptr %28, align 8, !tbaa !14
  %42 = load ptr, ptr %26, align 8, !tbaa !22
  %43 = icmp ne ptr %42, null
  br i1 %43, label %44, label %47

44:                                               ; preds = %12
  %45 = load ptr, ptr %27, align 8, !tbaa !22
  %46 = icmp ne ptr %45, null
  br i1 %46, label %51, label %47

47:                                               ; preds = %44, %12
  %48 = load ptr, ptr %26, align 8, !tbaa !22
  call void @free(ptr noundef %48) #10
  %49 = load ptr, ptr %27, align 8, !tbaa !22
  call void @free(ptr noundef %49) #10
  %50 = load i64, ptr %15, align 8, !tbaa !10
  call void @COVER_dictSelectionError(ptr dead_on_unwind writable sret(%struct.COVER_dictSelection) align 8 %0, i64 noundef %50)
  store i32 1, ptr %29, align 4
  br label %165

51:                                               ; preds = %44
  %52 = load ptr, ptr %26, align 8, !tbaa !22
  %53 = load ptr, ptr %13, align 8, !tbaa !22
  %54 = load i64, ptr %15, align 8, !tbaa !10
  call void @llvm.memcpy.p0.p0.i64(ptr align 1 %52, ptr align 1 %53, i64 %54, i1 false)
  %55 = load ptr, ptr %26, align 8, !tbaa !22
  %56 = load i64, ptr %14, align 8, !tbaa !10
  %57 = load ptr, ptr %13, align 8, !tbaa !22
  %58 = load i64, ptr %15, align 8, !tbaa !10
  %59 = load ptr, ptr %16, align 8, !tbaa !22
  %60 = load ptr, ptr %17, align 8, !tbaa !3
  %61 = load i32, ptr %18, align 4, !tbaa !8
  %62 = getelementptr inbounds nuw %struct.ZDICT_cover_params_t, ptr %9, i32 0, i32 7
  %63 = call i64 @ZDICT_finalizeDictionary(ptr noundef %55, i64 noundef %56, ptr noundef %57, i64 noundef %58, ptr noundef %59, ptr noundef %60, i32 noundef %61, ptr noundef byval(%struct.ZDICT_params_t) align 8 %62)
  store i64 %63, ptr %15, align 8, !tbaa !10
  %64 = load i64, ptr %15, align 8, !tbaa !10
  %65 = call i32 @ZDICT_isError(i64 noundef %64)
  %66 = icmp ne i32 %65, 0
  br i1 %66, label %67, label %71

67:                                               ; preds = %51
  %68 = load ptr, ptr %26, align 8, !tbaa !22
  call void @free(ptr noundef %68) #10
  %69 = load ptr, ptr %27, align 8, !tbaa !22
  call void @free(ptr noundef %69) #10
  %70 = load i64, ptr %15, align 8, !tbaa !10
  call void @COVER_dictSelectionError(ptr dead_on_unwind writable sret(%struct.COVER_dictSelection) align 8 %0, i64 noundef %70)
  store i32 1, ptr %29, align 4
  br label %165

71:                                               ; preds = %51
  %72 = load ptr, ptr %17, align 8, !tbaa !3
  %73 = load ptr, ptr %16, align 8, !tbaa !22
  %74 = load ptr, ptr %21, align 8, !tbaa !3
  %75 = load i64, ptr %19, align 8, !tbaa !10
  %76 = load i64, ptr %20, align 8, !tbaa !10
  %77 = load ptr, ptr %26, align 8, !tbaa !22
  %78 = load i64, ptr %15, align 8, !tbaa !10
  %79 = call i64 @COVER_checkTotalCompressedSize(ptr noundef byval(%struct.ZDICT_cover_params_t) align 8 %9, ptr noundef %72, ptr noundef %73, ptr noundef %74, i64 noundef %75, i64 noundef %76, ptr noundef %77, i64 noundef %78)
  store i64 %79, ptr %22, align 8, !tbaa !10
  %80 = load i64, ptr %22, align 8, !tbaa !10
  %81 = call i32 @ERR_isError(i64 noundef %80)
  %82 = icmp ne i32 %81, 0
  br i1 %82, label %83, label %87

83:                                               ; preds = %71
  %84 = load ptr, ptr %26, align 8, !tbaa !22
  call void @free(ptr noundef %84) #10
  %85 = load ptr, ptr %27, align 8, !tbaa !22
  call void @free(ptr noundef %85) #10
  %86 = load i64, ptr %22, align 8, !tbaa !10
  call void @COVER_dictSelectionError(ptr dead_on_unwind writable sret(%struct.COVER_dictSelection) align 8 %0, i64 noundef %86)
  store i32 1, ptr %29, align 4
  br label %165

87:                                               ; preds = %71
  %88 = getelementptr inbounds nuw %struct.ZDICT_cover_params_t, ptr %9, i32 0, i32 5
  %89 = load i32, ptr %88, align 8, !tbaa !79
  %90 = icmp eq i32 %89, 0
  br i1 %90, label %91, label %96

91:                                               ; preds = %87
  %92 = load ptr, ptr %27, align 8, !tbaa !22
  call void @free(ptr noundef %92) #10
  %93 = load ptr, ptr %26, align 8, !tbaa !22
  %94 = load i64, ptr %15, align 8, !tbaa !10
  %95 = load i64, ptr %22, align 8, !tbaa !10
  call void @setDictSelection(ptr dead_on_unwind writable sret(%struct.COVER_dictSelection) align 8 %0, ptr noundef %93, i64 noundef %94, i64 noundef %95)
  store i32 1, ptr %29, align 4
  br label %165

96:                                               ; preds = %87
  %97 = load i64, ptr %15, align 8, !tbaa !10
  store i64 %97, ptr %23, align 8, !tbaa !10
  %98 = load i64, ptr %22, align 8, !tbaa !10
  store i64 %98, ptr %24, align 8, !tbaa !10
  store i64 256, ptr %15, align 8, !tbaa !10
  br label %99

99:                                               ; preds = %155, %96
  %100 = load i64, ptr %15, align 8, !tbaa !10
  %101 = load i64, ptr %23, align 8, !tbaa !10
  %102 = icmp ult i64 %100, %101
  br i1 %102, label %103, label %158

103:                                              ; preds = %99
  %104 = load ptr, ptr %27, align 8, !tbaa !22
  %105 = load ptr, ptr %26, align 8, !tbaa !22
  %106 = load i64, ptr %23, align 8, !tbaa !10
  call void @llvm.memcpy.p0.p0.i64(ptr align 1 %104, ptr align 1 %105, i64 %106, i1 false)
  %107 = load ptr, ptr %27, align 8, !tbaa !22
  %108 = load i64, ptr %14, align 8, !tbaa !10
  %109 = load ptr, ptr %25, align 8, !tbaa !22
  %110 = load i64, ptr %15, align 8, !tbaa !10
  %111 = sub i64 0, %110
  %112 = getelementptr inbounds i8, ptr %109, i64 %111
  %113 = load i64, ptr %15, align 8, !tbaa !10
  %114 = load ptr, ptr %16, align 8, !tbaa !22
  %115 = load ptr, ptr %17, align 8, !tbaa !3
  %116 = load i32, ptr %18, align 4, !tbaa !8
  %117 = getelementptr inbounds nuw %struct.ZDICT_cover_params_t, ptr %9, i32 0, i32 7
  %118 = call i64 @ZDICT_finalizeDictionary(ptr noundef %107, i64 noundef %108, ptr noundef %112, i64 noundef %113, ptr noundef %114, ptr noundef %115, i32 noundef %116, ptr noundef byval(%struct.ZDICT_params_t) align 8 %117)
  store i64 %118, ptr %15, align 8, !tbaa !10
  %119 = load i64, ptr %15, align 8, !tbaa !10
  %120 = call i32 @ZDICT_isError(i64 noundef %119)
  %121 = icmp ne i32 %120, 0
  br i1 %121, label %122, label %126

122:                                              ; preds = %103
  %123 = load ptr, ptr %26, align 8, !tbaa !22
  call void @free(ptr noundef %123) #10
  %124 = load ptr, ptr %27, align 8, !tbaa !22
  call void @free(ptr noundef %124) #10
  %125 = load i64, ptr %15, align 8, !tbaa !10
  call void @COVER_dictSelectionError(ptr dead_on_unwind writable sret(%struct.COVER_dictSelection) align 8 %0, i64 noundef %125)
  store i32 1, ptr %29, align 4
  br label %165

126:                                              ; preds = %103
  %127 = load ptr, ptr %17, align 8, !tbaa !3
  %128 = load ptr, ptr %16, align 8, !tbaa !22
  %129 = load ptr, ptr %21, align 8, !tbaa !3
  %130 = load i64, ptr %19, align 8, !tbaa !10
  %131 = load i64, ptr %20, align 8, !tbaa !10
  %132 = load ptr, ptr %27, align 8, !tbaa !22
  %133 = load i64, ptr %15, align 8, !tbaa !10
  %134 = call i64 @COVER_checkTotalCompressedSize(ptr noundef byval(%struct.ZDICT_cover_params_t) align 8 %9, ptr noundef %127, ptr noundef %128, ptr noundef %129, i64 noundef %130, i64 noundef %131, ptr noundef %132, i64 noundef %133)
  store i64 %134, ptr %22, align 8, !tbaa !10
  %135 = load i64, ptr %22, align 8, !tbaa !10
  %136 = call i32 @ERR_isError(i64 noundef %135)
  %137 = icmp ne i32 %136, 0
  br i1 %137, label %138, label %142

138:                                              ; preds = %126
  %139 = load ptr, ptr %26, align 8, !tbaa !22
  call void @free(ptr noundef %139) #10
  %140 = load ptr, ptr %27, align 8, !tbaa !22
  call void @free(ptr noundef %140) #10
  %141 = load i64, ptr %22, align 8, !tbaa !10
  call void @COVER_dictSelectionError(ptr dead_on_unwind writable sret(%struct.COVER_dictSelection) align 8 %0, i64 noundef %141)
  store i32 1, ptr %29, align 4
  br label %165

142:                                              ; preds = %126
  %143 = load i64, ptr %22, align 8, !tbaa !10
  %144 = uitofp i64 %143 to double
  %145 = load i64, ptr %24, align 8, !tbaa !10
  %146 = uitofp i64 %145 to double
  %147 = load double, ptr %28, align 8, !tbaa !14
  %148 = fmul double %146, %147
  %149 = fcmp ole double %144, %148
  br i1 %149, label %150, label %155

150:                                              ; preds = %142
  %151 = load ptr, ptr %26, align 8, !tbaa !22
  call void @free(ptr noundef %151) #10
  %152 = load ptr, ptr %27, align 8, !tbaa !22
  %153 = load i64, ptr %15, align 8, !tbaa !10
  %154 = load i64, ptr %22, align 8, !tbaa !10
  call void @setDictSelection(ptr dead_on_unwind writable sret(%struct.COVER_dictSelection) align 8 %0, ptr noundef %152, i64 noundef %153, i64 noundef %154)
  store i32 1, ptr %29, align 4
  br label %165

155:                                              ; preds = %142
  %156 = load i64, ptr %15, align 8, !tbaa !10
  %157 = mul i64 %156, 2
  store i64 %157, ptr %15, align 8, !tbaa !10
  br label %99, !llvm.loop !80

158:                                              ; preds = %99
  %159 = load i64, ptr %23, align 8, !tbaa !10
  store i64 %159, ptr %15, align 8, !tbaa !10
  %160 = load i64, ptr %24, align 8, !tbaa !10
  store i64 %160, ptr %22, align 8, !tbaa !10
  %161 = load ptr, ptr %27, align 8, !tbaa !22
  call void @free(ptr noundef %161) #10
  %162 = load ptr, ptr %26, align 8, !tbaa !22
  %163 = load i64, ptr %15, align 8, !tbaa !10
  %164 = load i64, ptr %22, align 8, !tbaa !10
  call void @setDictSelection(ptr dead_on_unwind writable sret(%struct.COVER_dictSelection) align 8 %0, ptr noundef %162, i64 noundef %163, i64 noundef %164)
  store i32 1, ptr %29, align 4
  br label %165

165:                                              ; preds = %158, %150, %138, %122, %91, %83, %67, %47
  call void @llvm.lifetime.end.p0(i64 8, ptr %28) #10
  call void @llvm.lifetime.end.p0(i64 8, ptr %27) #10
  call void @llvm.lifetime.end.p0(i64 8, ptr %26) #10
  call void @llvm.lifetime.end.p0(i64 8, ptr %25) #10
  call void @llvm.lifetime.end.p0(i64 8, ptr %24) #10
  call void @llvm.lifetime.end.p0(i64 8, ptr %23) #10
  ret void
}